Certificate:
    Data:
        Version: 3 (0x2)
        Serial Number: 238 (0xee)
    Signature Algorithm: sha1WithRSAEncryption
        Issuer: C=CN, ST=GD, L=SZ, O=LCB, OU=LCB, CN=lingcb.com/emailAddress=370220760@qq.com
        Validity
            Not Before: Apr 21 08:55:06 2017 GMT
            Not After : Apr 19 08:55:06 2027 GMT
        Subject: C=CN, ST=GD, L=SZ, O=LCB, OU=LCB, CN=lingcb.com/emailAddress=370220760@qq.com
        Subject Public Key Info:
            Public Key Algorithm: rsaEncryption
                Public-Key: (1024 bit)
                Modulus:
                    00:f2:e8:8b:0b:30:71:19:e9:06:11:38:4d:80:20:
                    ac:10:84:38:ec:55:7f:fe:60:79:dd:70:aa:d7:58:
                    a5:1e:b9:9e:f0:6d:e9:14:7e:dd:de:67:f0:47:b3:
                    f1:d2:ce:5d:67:fb:9a:75:aa:ef:96:03:37:e5:1f:
                    04:7f:55:f0:a2:8d:31:92:5f:37:bb:bc:00:d1:3d:
                    3f:fa:43:34:f0:59:f3:8b:f0:30:68:3a:55:48:e6:
                    f2:4b:01:68:70:77:cb:12:93:75:eb:9a:72:14:ea:
                    38:38:56:2d:cc:2d:ce:27:c8:80:ee:80:2b:d0:db:
                    5f:ae:b0:75:71:a0:e7:7c:09
                Exponent: 65537 (0x10001)
        X509v3 extensions:
            X509v3 Basic Constraints: 
                CA:FALSE
            Netscape Comment: 
                OpenSSL Generated Certificate
            X509v3 Subject Key Identifier: 
                F3:7B:B0:4A:12:4B:69:26:69:82:A3:19:4E:E4:56:65:79:6C:CA:23
            X509v3 Authority Key Identifier: 
                keyid:C1:EF:C7:C9:33:4A:4C:21:E7:94:55:51:0A:24:7B:A6:32:1B:21:76

    Signature Algorithm: sha1WithRSAEncryption
         3e:f3:36:80:5d:6b:37:99:80:c4:8b:ea:04:2a:b3:55:59:a2:
         bc:95:46:71:18:9a:81:c0:98:70:1b:45:97:c8:99:85:2e:52:
         1c:a2:05:46:2e:a8:3d:b5:e0:ba:7c:88:2f:db:cf:27:4c:f4:
         d5:2b:13:48:46:70:89:2d:e9:51:f1:b9:6d:68:50:39:6b:ba:
         b1:0e:cf:45:25:1b:46:fe:c9:46:04:01:78:0a:83:85:5b:67:
         e7:b5:0f:d9:61:ab:a2:f0:5a:a7:41:81:fc:fe:25:27:24:6f:
         c2:49:60:85:85:c1:14:f4:64:66:26:24:d7:e2:c8:15:a3:03:
         d1:71:7f:e2:db:b0:e0:02:9a:a7:53:e1:de:00:60:08:da:6f:
         ef:a3:25:24:9b:f5:d3:b6:c4:38:94:2d:83:e7:ce:fe:0c:75:
         81:c0:1b:bb:63:cb:d6:55:13:79:80:19:83:cc:7b:10:dd:4e:
         37:51:cf:8e:63:dd:7e:4d:36:6b:54:2c:85:5d:ef:34:ba:cb:
         b8:54:bc:96:62:9e:45:5d:80:90:ee:52:7f:17:fa:05:7e:eb:
         b2:02:11:c5:e4:20:65:b7:36:a1:96:78:b3:31:a9:37:d4:f0:
         ae:4c:99:22:ab:08:71:6e:b2:24:0c:97:1f:ee:99:0d:13:dd:
         77:fc:bd:eb
-----BEGIN CERTIFICATE-----
MIIDZTCCAk2gAwIBAgICAO4wDQYJKoZIhvcNAQEFBQAweTELMAkGA1UEBhMCQ04x
CzAJBgNVBAgMAkdEMQswCQYDVQQHDAJTWjEMMAoGA1UECgwDTENCMQwwCgYDVQQL
DANMQ0IxEzARBgNVBAMMCmxpbmdjYi5jb20xHzAdBgkqhkiG9w0BCQEWEDM3MDIy
MDc2MEBxcS5jb20wHhcNMTcwNDIxMDg1NTA2WhcNMjcwNDE5MDg1NTA2WjB5MQsw
CQYDVQQGEwJDTjELMAkGA1UECAwCR0QxCzAJBgNVBAcMAlNaMQwwCgYDVQQKDANM
Q0IxDDAKBgNVBAsMA0xDQjETMBEGA1UEAwwKbGluZ2NiLmNvbTEfMB0GCSqGSIb3
DQEJARYQMzcwMjIwNzYwQHFxLmNvbTCBnzANBgkqhkiG9w0BAQEFAAOBjQAwgYkC
gYEA8uiLCzBxGekGEThNgCCsEIQ47FV//mB53XCq11ilHrme8G3pFH7d3mfwR7Px
0s5dZ/uadarvlgM35R8Ef1Xwoo0xkl83u7wA0T0/+kM08Fnzi/AwaDpVSObySwFo
cHfLEpN165pyFOo4OFYtzC3OJ8iA7oAr0NtfrrB1caDnfAkCAwEAAaN7MHkwCQYD
VR0TBAIwADAsBglghkgBhvhCAQ0EHxYdT3BlblNTTCBHZW5lcmF0ZWQgQ2VydGlm
aWNhdGUwHQYDVR0OBBYEFPN7sEoSS2kmaYKjGU7kVmV5bMojMB8GA1UdIwQYMBaA
FMHvx8kzSkwh55RVUQoke6YyGyF2MA0GCSqGSIb3DQEBBQUAA4IBAQA+8zaAXWs3
mYDEi+oEKrNVWaK8lUZxGJqBwJhwG0WXyJmFLlIcogVGLqg9teC6fIgv288nTPTV
KxNIRnCJLelR8bltaFA5a7qxDs9FJRtG/slGBAF4CoOFW2fntQ/ZYaui8FqnQYH8
/iUnJG/CSWCFhcEU9GRmJiTX4sgVowPRcX/i27DgApqnU+HeAGAI2m/voyUkm/XT
tsQ4lC2D587+DHWBwBu7Y8vWVRN5gBmDzHsQ3U43Uc+OY91+TTZrVCyFXe80usu4
VLyWYp5FXYCQ7lJ/F/oFfuuyAhHF5CBltzahlnizMak31PCuTJkiqwhxbrIkDJcf
7pkNE913/L3r
-----END CERTIFICATE-----
-----BEGIN RSA PRIVATE KEY-----
MIICXgIBAAKBgQDy6IsLMHEZ6QYROE2AIKwQhDjsVX/+YHndcKrXWKUeuZ7wbekU
ft3eZ/BHs/HSzl1n+5p1qu+WAzflHwR/VfCijTGSXze7vADRPT/6QzTwWfOL8DBo
OlVI5vJLAWhwd8sSk3XrmnIU6jg4Vi3MLc4nyIDugCvQ21+usHVxoOd8CQIDAQAB
AoGAOZY5yIhOd/cPkiuH7BVS1YOTPywx8OuMWJwqVG1WkAcvkA5ukIZXMS/w/f7C
GNkFue4jOzwwGp9es/n7hfio2Fpb8URuJh0groZaZqyv8EACXN3kPTXhU+I+GxrY
WpolASwl4AV6GXiDiSqTiwKPnoG341HtTxal/93lQHxO8AECQQD/1cxOxrtRRcM3
YxoTuzZG2Rfdk/hYPFGri2WrFgcv3Toa53M0PK6wTVZuWNcNf7ITaPX8RYYEzlDS
X37vdN4BAkEA8xCc2YA70+OTstZiJyk9HY5WNmnVykvRKUcSzCgKwwihsxTRv0OB
GzRkBWEqWDOvEvSYLa6/sTrfGMYtdOeuCQJBAJjqLYgYePYHALwmW/vXNoX6VK14
OERlKVujok00iW8uiAB0vwNGEhQG5dZm+4NyA/peDkmPNJ/CwcQ8mB6AeAECQQCg
ROr3a1uHmn6QJFXx9noq2+iy1lQ2oIlZC1k0ro5yDWX5nBe1YsBlfMUa2ve90s50
1DznmlshdG0Ye8wLUpxpAkEAh/wLcMuJsiB3mJoRciulMaa40O/amy9MNDEdA86P
93ih/bkEi4v0uMOgkJdn+KMaciQ2Am+LiNG6zB9zsrl/4w==
-----END RSA PRIVATE KEY-----
